	.file	"runtime.c"
	.globl	consts
	.section	.rodata
	.align 32
	.type	consts, @object
	.size	consts, 4096
consts:
	.quad	1
	.byte	0
	.zero	7
	.quad	1
	.byte	1
	.zero	7
	.quad	1
	.byte	2
	.zero	7
	.quad	1
	.byte	3
	.zero	7
	.quad	1
	.byte	4
	.zero	7
	.quad	1
	.byte	5
	.zero	7
	.quad	1
	.byte	6
	.zero	7
	.quad	1
	.byte	7
	.zero	7
	.quad	1
	.byte	8
	.zero	7
	.quad	1
	.byte	9
	.zero	7
	.quad	1
	.byte	10
	.zero	7
	.quad	1
	.byte	11
	.zero	7
	.quad	1
	.byte	12
	.zero	7
	.quad	1
	.byte	13
	.zero	7
	.quad	1
	.byte	14
	.zero	7
	.quad	1
	.byte	15
	.zero	7
	.quad	1
	.byte	16
	.zero	7
	.quad	1
	.byte	17
	.zero	7
	.quad	1
	.byte	18
	.zero	7
	.quad	1
	.byte	19
	.zero	7
	.quad	1
	.byte	20
	.zero	7
	.quad	1
	.byte	21
	.zero	7
	.quad	1
	.byte	22
	.zero	7
	.quad	1
	.byte	23
	.zero	7
	.quad	1
	.byte	24
	.zero	7
	.quad	1
	.byte	25
	.zero	7
	.quad	1
	.byte	26
	.zero	7
	.quad	1
	.byte	27
	.zero	7
	.quad	1
	.byte	28
	.zero	7
	.quad	1
	.byte	29
	.zero	7
	.quad	1
	.byte	30
	.zero	7
	.quad	1
	.byte	31
	.zero	7
	.quad	1
	.byte	32
	.zero	7
	.quad	1
	.byte	33
	.zero	7
	.quad	1
	.byte	34
	.zero	7
	.quad	1
	.byte	35
	.zero	7
	.quad	1
	.byte	36
	.zero	7
	.quad	1
	.byte	37
	.zero	7
	.quad	1
	.byte	38
	.zero	7
	.quad	1
	.byte	39
	.zero	7
	.quad	1
	.byte	40
	.zero	7
	.quad	1
	.byte	41
	.zero	7
	.quad	1
	.byte	42
	.zero	7
	.quad	1
	.byte	43
	.zero	7
	.quad	1
	.byte	44
	.zero	7
	.quad	1
	.byte	45
	.zero	7
	.quad	1
	.byte	46
	.zero	7
	.quad	1
	.byte	47
	.zero	7
	.quad	1
	.byte	48
	.zero	7
	.quad	1
	.byte	49
	.zero	7
	.quad	1
	.byte	50
	.zero	7
	.quad	1
	.byte	51
	.zero	7
	.quad	1
	.byte	52
	.zero	7
	.quad	1
	.byte	53
	.zero	7
	.quad	1
	.byte	54
	.zero	7
	.quad	1
	.byte	55
	.zero	7
	.quad	1
	.byte	56
	.zero	7
	.quad	1
	.byte	57
	.zero	7
	.quad	1
	.byte	58
	.zero	7
	.quad	1
	.byte	59
	.zero	7
	.quad	1
	.byte	60
	.zero	7
	.quad	1
	.byte	61
	.zero	7
	.quad	1
	.byte	62
	.zero	7
	.quad	1
	.byte	63
	.zero	7
	.quad	1
	.byte	64
	.zero	7
	.quad	1
	.byte	65
	.zero	7
	.quad	1
	.byte	66
	.zero	7
	.quad	1
	.byte	67
	.zero	7
	.quad	1
	.byte	68
	.zero	7
	.quad	1
	.byte	69
	.zero	7
	.quad	1
	.byte	70
	.zero	7
	.quad	1
	.byte	71
	.zero	7
	.quad	1
	.byte	72
	.zero	7
	.quad	1
	.byte	73
	.zero	7
	.quad	1
	.byte	74
	.zero	7
	.quad	1
	.byte	75
	.zero	7
	.quad	1
	.byte	76
	.zero	7
	.quad	1
	.byte	77
	.zero	7
	.quad	1
	.byte	78
	.zero	7
	.quad	1
	.byte	79
	.zero	7
	.quad	1
	.byte	80
	.zero	7
	.quad	1
	.byte	81
	.zero	7
	.quad	1
	.byte	82
	.zero	7
	.quad	1
	.byte	83
	.zero	7
	.quad	1
	.byte	84
	.zero	7
	.quad	1
	.byte	85
	.zero	7
	.quad	1
	.byte	86
	.zero	7
	.quad	1
	.byte	87
	.zero	7
	.quad	1
	.byte	88
	.zero	7
	.quad	1
	.byte	89
	.zero	7
	.quad	1
	.byte	90
	.zero	7
	.quad	1
	.byte	91
	.zero	7
	.quad	1
	.byte	92
	.zero	7
	.quad	1
	.byte	93
	.zero	7
	.quad	1
	.byte	94
	.zero	7
	.quad	1
	.byte	95
	.zero	7
	.quad	1
	.byte	96
	.zero	7
	.quad	1
	.byte	97
	.zero	7
	.quad	1
	.byte	98
	.zero	7
	.quad	1
	.byte	99
	.zero	7
	.quad	1
	.byte	100
	.zero	7
	.quad	1
	.byte	101
	.zero	7
	.quad	1
	.byte	102
	.zero	7
	.quad	1
	.byte	103
	.zero	7
	.quad	1
	.byte	104
	.zero	7
	.quad	1
	.byte	105
	.zero	7
	.quad	1
	.byte	106
	.zero	7
	.quad	1
	.byte	107
	.zero	7
	.quad	1
	.byte	108
	.zero	7
	.quad	1
	.byte	109
	.zero	7
	.quad	1
	.byte	110
	.zero	7
	.quad	1
	.byte	111
	.zero	7
	.quad	1
	.byte	112
	.zero	7
	.quad	1
	.byte	113
	.zero	7
	.quad	1
	.byte	114
	.zero	7
	.quad	1
	.byte	115
	.zero	7
	.quad	1
	.byte	116
	.zero	7
	.quad	1
	.byte	117
	.zero	7
	.quad	1
	.byte	118
	.zero	7
	.quad	1
	.byte	119
	.zero	7
	.quad	1
	.byte	120
	.zero	7
	.quad	1
	.byte	121
	.zero	7
	.quad	1
	.byte	122
	.zero	7
	.quad	1
	.byte	123
	.zero	7
	.quad	1
	.byte	124
	.zero	7
	.quad	1
	.byte	125
	.zero	7
	.quad	1
	.byte	126
	.zero	7
	.quad	1
	.byte	127
	.zero	7
	.quad	1
	.byte	-128
	.zero	7
	.quad	1
	.byte	-127
	.zero	7
	.quad	1
	.byte	-126
	.zero	7
	.quad	1
	.byte	-125
	.zero	7
	.quad	1
	.byte	-124
	.zero	7
	.quad	1
	.byte	-123
	.zero	7
	.quad	1
	.byte	-122
	.zero	7
	.quad	1
	.byte	-121
	.zero	7
	.quad	1
	.byte	-120
	.zero	7
	.quad	1
	.byte	-119
	.zero	7
	.quad	1
	.byte	-118
	.zero	7
	.quad	1
	.byte	-117
	.zero	7
	.quad	1
	.byte	-116
	.zero	7
	.quad	1
	.byte	-115
	.zero	7
	.quad	1
	.byte	-114
	.zero	7
	.quad	1
	.byte	-113
	.zero	7
	.quad	1
	.byte	-112
	.zero	7
	.quad	1
	.byte	-111
	.zero	7
	.quad	1
	.byte	-110
	.zero	7
	.quad	1
	.byte	-109
	.zero	7
	.quad	1
	.byte	-108
	.zero	7
	.quad	1
	.byte	-107
	.zero	7
	.quad	1
	.byte	-106
	.zero	7
	.quad	1
	.byte	-105
	.zero	7
	.quad	1
	.byte	-104
	.zero	7
	.quad	1
	.byte	-103
	.zero	7
	.quad	1
	.byte	-102
	.zero	7
	.quad	1
	.byte	-101
	.zero	7
	.quad	1
	.byte	-100
	.zero	7
	.quad	1
	.byte	-99
	.zero	7
	.quad	1
	.byte	-98
	.zero	7
	.quad	1
	.byte	-97
	.zero	7
	.quad	1
	.byte	-96
	.zero	7
	.quad	1
	.byte	-95
	.zero	7
	.quad	1
	.byte	-94
	.zero	7
	.quad	1
	.byte	-93
	.zero	7
	.quad	1
	.byte	-92
	.zero	7
	.quad	1
	.byte	-91
	.zero	7
	.quad	1
	.byte	-90
	.zero	7
	.quad	1
	.byte	-89
	.zero	7
	.quad	1
	.byte	-88
	.zero	7
	.quad	1
	.byte	-87
	.zero	7
	.quad	1
	.byte	-86
	.zero	7
	.quad	1
	.byte	-85
	.zero	7
	.quad	1
	.byte	-84
	.zero	7
	.quad	1
	.byte	-83
	.zero	7
	.quad	1
	.byte	-82
	.zero	7
	.quad	1
	.byte	-81
	.zero	7
	.quad	1
	.byte	-80
	.zero	7
	.quad	1
	.byte	-79
	.zero	7
	.quad	1
	.byte	-78
	.zero	7
	.quad	1
	.byte	-77
	.zero	7
	.quad	1
	.byte	-76
	.zero	7
	.quad	1
	.byte	-75
	.zero	7
	.quad	1
	.byte	-74
	.zero	7
	.quad	1
	.byte	-73
	.zero	7
	.quad	1
	.byte	-72
	.zero	7
	.quad	1
	.byte	-71
	.zero	7
	.quad	1
	.byte	-70
	.zero	7
	.quad	1
	.byte	-69
	.zero	7
	.quad	1
	.byte	-68
	.zero	7
	.quad	1
	.byte	-67
	.zero	7
	.quad	1
	.byte	-66
	.zero	7
	.quad	1
	.byte	-65
	.zero	7
	.quad	1
	.byte	-64
	.zero	7
	.quad	1
	.byte	-63
	.zero	7
	.quad	1
	.byte	-62
	.zero	7
	.quad	1
	.byte	-61
	.zero	7
	.quad	1
	.byte	-60
	.zero	7
	.quad	1
	.byte	-59
	.zero	7
	.quad	1
	.byte	-58
	.zero	7
	.quad	1
	.byte	-57
	.zero	7
	.quad	1
	.byte	-56
	.zero	7
	.quad	1
	.byte	-55
	.zero	7
	.quad	1
	.byte	-54
	.zero	7
	.quad	1
	.byte	-53
	.zero	7
	.quad	1
	.byte	-52
	.zero	7
	.quad	1
	.byte	-51
	.zero	7
	.quad	1
	.byte	-50
	.zero	7
	.quad	1
	.byte	-49
	.zero	7
	.quad	1
	.byte	-48
	.zero	7
	.quad	1
	.byte	-47
	.zero	7
	.quad	1
	.byte	-46
	.zero	7
	.quad	1
	.byte	-45
	.zero	7
	.quad	1
	.byte	-44
	.zero	7
	.quad	1
	.byte	-43
	.zero	7
	.quad	1
	.byte	-42
	.zero	7
	.quad	1
	.byte	-41
	.zero	7
	.quad	1
	.byte	-40
	.zero	7
	.quad	1
	.byte	-39
	.zero	7
	.quad	1
	.byte	-38
	.zero	7
	.quad	1
	.byte	-37
	.zero	7
	.quad	1
	.byte	-36
	.zero	7
	.quad	1
	.byte	-35
	.zero	7
	.quad	1
	.byte	-34
	.zero	7
	.quad	1
	.byte	-33
	.zero	7
	.quad	1
	.byte	-32
	.zero	7
	.quad	1
	.byte	-31
	.zero	7
	.quad	1
	.byte	-30
	.zero	7
	.quad	1
	.byte	-29
	.zero	7
	.quad	1
	.byte	-28
	.zero	7
	.quad	1
	.byte	-27
	.zero	7
	.quad	1
	.byte	-26
	.zero	7
	.quad	1
	.byte	-25
	.zero	7
	.quad	1
	.byte	-24
	.zero	7
	.quad	1
	.byte	-23
	.zero	7
	.quad	1
	.byte	-22
	.zero	7
	.quad	1
	.byte	-21
	.zero	7
	.quad	1
	.byte	-20
	.zero	7
	.quad	1
	.byte	-19
	.zero	7
	.quad	1
	.byte	-18
	.zero	7
	.quad	1
	.byte	-17
	.zero	7
	.quad	1
	.byte	-16
	.zero	7
	.quad	1
	.byte	-15
	.zero	7
	.quad	1
	.byte	-14
	.zero	7
	.quad	1
	.byte	-13
	.zero	7
	.quad	1
	.byte	-12
	.zero	7
	.quad	1
	.byte	-11
	.zero	7
	.quad	1
	.byte	-10
	.zero	7
	.quad	1
	.byte	-9
	.zero	7
	.quad	1
	.byte	-8
	.zero	7
	.quad	1
	.byte	-7
	.zero	7
	.quad	1
	.byte	-6
	.zero	7
	.quad	1
	.byte	-5
	.zero	7
	.quad	1
	.byte	-4
	.zero	7
	.quad	1
	.byte	-3
	.zero	7
	.quad	1
	.byte	-2
	.zero	7
	.quad	1
	.byte	-1
	.zero	7
	.globl	empty
	.bss
	.align 16
	.type	empty, @object
	.size	empty, 16
empty:
	.zero	16
	.globl	a
	.data
	.align 16
	.type	a, @object
	.size	a, 16
a:
	.quad	4
	.ascii	"g"
	.zero	7
	.text
	.globl	_initArray
	.type	_initArray, @function
_initArray:
.LFB2:
	.cfi_startproc
	pushq	%rbp
	.cfi_def_cfa_offset 16
	.cfi_offset 6, -16
	movq	%rsp, %rbp
	.cfi_def_cfa_register 6
	subq	$32, %rsp
	movq	%rdi, -24(%rbp)
	movq	%rsi, -32(%rbp)
	movq	-24(%rbp), %rax
	salq	$3, %rax
	addq	$1, %rax
	movq	%rax, %rdi
	call	malloc
	movq	%rax, -8(%rbp)
	movq	-8(%rbp), %rax
	movq	-24(%rbp), %rdx
	movq	%rdx, (%rax)
	movl	$1, -12(%rbp)
	jmp	.L2
.L3:
	movl	-12(%rbp), %eax
	cltq
	leaq	0(,%rax,8), %rdx
	movq	-8(%rbp), %rax
	addq	%rax, %rdx
	movq	-32(%rbp), %rax
	movq	%rax, (%rdx)
	addl	$1, -12(%rbp)
.L2:
	movl	-12(%rbp), %eax
	cltq
	cmpq	-24(%rbp), %rax
	jle	.L3
	movq	-8(%rbp), %rax
	addq	$8, %rax
	leave
	.cfi_def_cfa 7, 8
	ret
	.cfi_endproc
.LFE2:
	.size	_initArray, .-_initArray
	.section	.rodata
.LC0:
	.string	"indice %ld excedido!\n"
	.text
	.globl	_checkIndexArray
	.type	_checkIndexArray, @function
_checkIndexArray:
.LFB3:
	.cfi_startproc
	pushq	%rbp
	.cfi_def_cfa_offset 16
	.cfi_offset 6, -16
	movq	%rsp, %rbp
	.cfi_def_cfa_register 6
	subq	$16, %rsp
	movq	%rdi, -8(%rbp)
	movq	%rsi, -16(%rbp)
	cmpq	$0, -16(%rbp)
	js	.L6
	movq	-8(%rbp), %rax
	subq	$8, %rax
	movq	(%rax), %rax
	cmpq	-16(%rbp), %rax
	jge	.L5
.L6:
	movq	stderr(%rip), %rax
	movq	-16(%rbp), %rdx
	movl	$.LC0, %esi
	movq	%rax, %rdi
	movl	$0, %eax
	call	fprintf
	movl	$-1, %edi
	call	exit
.L5:
	leave
	.cfi_def_cfa 7, 8
	ret
	.cfi_endproc
.LFE3:
	.size	_checkIndexArray, .-_checkIndexArray
	.globl	_allocRecord
	.type	_allocRecord, @function
_allocRecord:
.LFB4:
	.cfi_startproc
	pushq	%rbp
	.cfi_def_cfa_offset 16
	.cfi_offset 6, -16
	movq	%rsp, %rbp
	.cfi_def_cfa_register 6
	subq	$240, %rsp
	movq	%rsi, -168(%rbp)
	movq	%rdx, -160(%rbp)
	movq	%rcx, -152(%rbp)
	movq	%r8, -144(%rbp)
	movq	%r9, -136(%rbp)
	testb	%al, %al
	je	.L9
	movaps	%xmm0, -128(%rbp)
	movaps	%xmm1, -112(%rbp)
	movaps	%xmm2, -96(%rbp)
	movaps	%xmm3, -80(%rbp)
	movaps	%xmm4, -64(%rbp)
	movaps	%xmm5, -48(%rbp)
	movaps	%xmm6, -32(%rbp)
	movaps	%xmm7, -16(%rbp)
.L9:
	movq	%rdi, -232(%rbp)
	movq	-232(%rbp), %rax
	salq	$3, %rax
	movq	%rax, %rdi
	call	malloc
	movq	%rax, -208(%rbp)
	movq	-208(%rbp), %rax
	movq	%rax, -216(%rbp)
	movl	$8, -200(%rbp)
	movl	$48, -196(%rbp)
	leaq	16(%rbp), %rax
	movq	%rax, -192(%rbp)
	leaq	-176(%rbp), %rax
	movq	%rax, -184(%rbp)
	movl	$0, -220(%rbp)
	jmp	.L10
.L13:
	movq	-216(%rbp), %rax
	leaq	8(%rax), %rdx
	movq	%rdx, -216(%rbp)
	movl	-200(%rbp), %edx
	cmpl	$48, %edx
	jnb	.L11
	movq	-184(%rbp), %rcx
	movl	-200(%rbp), %edx
	movl	%edx, %edx
	addq	%rcx, %rdx
	movl	-200(%rbp), %ecx
	addl	$8, %ecx
	movl	%ecx, -200(%rbp)
	jmp	.L12
.L11:
	movq	-192(%rbp), %rcx
	movq	%rcx, %rdx
	addq	$8, %rcx
	movq	%rcx, -192(%rbp)
.L12:
	movq	(%rdx), %rdx
	movq	%rdx, (%rax)
	addl	$1, -220(%rbp)
.L10:
	movl	-220(%rbp), %eax
	cltq
	cmpq	-232(%rbp), %rax
	jl	.L13
	movq	-208(%rbp), %rax
	leave
	.cfi_def_cfa 7, 8
	ret
	.cfi_endproc
.LFE4:
	.size	_allocRecord, .-_allocRecord
	.section	.rodata
.LC1:
	.string	"Nil!\n"
	.text
	.globl	_checkNil
	.type	_checkNil, @function
_checkNil:
.LFB5:
	.cfi_startproc
	pushq	%rbp
	.cfi_def_cfa_offset 16
	.cfi_offset 6, -16
	movq	%rsp, %rbp
	.cfi_def_cfa_register 6
	subq	$16, %rsp
	movq	%rdi, -8(%rbp)
	cmpq	$0, -8(%rbp)
	jne	.L15
	movq	stderr(%rip), %rax
	movq	%rax, %rcx
	movl	$5, %edx
	movl	$1, %esi
	movl	$.LC1, %edi
	call	fwrite
	movl	$-1, %edi
	call	exit
.L15:
	leave
	.cfi_def_cfa 7, 8
	ret
	.cfi_endproc
.LFE5:
	.size	_checkNil, .-_checkNil
	.globl	_stringCompare
	.type	_stringCompare, @function
_stringCompare:
.LFB6:
	.cfi_startproc
	pushq	%rbp
	.cfi_def_cfa_offset 16
	.cfi_offset 6, -16
	movq	%rsp, %rbp
	.cfi_def_cfa_register 6
	movq	%rdi, -24(%rbp)
	movq	%rsi, -32(%rbp)
	movq	-24(%rbp), %rax
	cmpq	-32(%rbp), %rax
	jne	.L18
	movl	$0, %eax
	jmp	.L19
.L18:
	movl	$0, -4(%rbp)
	jmp	.L20
.L23:
	movq	-24(%rbp), %rdx
	movl	-4(%rbp), %eax
	cltq
	movzbl	8(%rdx,%rax), %ecx
	movq	-32(%rbp), %rdx
	movl	-4(%rbp), %eax
	cltq
	movzbl	8(%rdx,%rax), %eax
	cmpb	%al, %cl
	je	.L21
	movq	-24(%rbp), %rdx
	movl	-4(%rbp), %eax
	cltq
	movzbl	8(%rdx,%rax), %eax
	movzbl	%al, %ecx
	movq	-32(%rbp), %rdx
	movl	-4(%rbp), %eax
	cltq
	movzbl	8(%rdx,%rax), %eax
	movzbl	%al, %eax
	subl	%eax, %ecx
	movl	%ecx, %eax
	cltq
	jmp	.L19
.L21:
	addl	$1, -4(%rbp)
.L20:
	movl	-4(%rbp), %eax
	movslq	%eax, %rdx
	movq	-24(%rbp), %rax
	movq	(%rax), %rax
	cmpq	%rax, %rdx
	jge	.L22
	movl	-4(%rbp), %eax
	movslq	%eax, %rdx
	movq	-32(%rbp), %rax
	movq	(%rax), %rax
	cmpq	%rax, %rdx
	jl	.L23
.L22:
	movq	-24(%rbp), %rax
	movq	(%rax), %rdx
	movq	-32(%rbp), %rax
	movq	(%rax), %rax
	subq	%rax, %rdx
	movq	%rdx, %rax
.L19:
	popq	%rbp
	.cfi_def_cfa 7, 8
	ret
	.cfi_endproc
.LFE6:
	.size	_stringCompare, .-_stringCompare
	.section	.rodata
.LC2:
	.string	"Longitud : %ld \n"
	.text
	.globl	print
	.type	print, @function
print:
.LFB7:
	.cfi_startproc
	pushq	%rbp
	.cfi_def_cfa_offset 16
	.cfi_offset 6, -16
	movq	%rsp, %rbp
	.cfi_def_cfa_register 6
	subq	$32, %rsp
	movq	%rdi, -24(%rbp)
	movq	-24(%rbp), %rax
	addq	$8, %rax
	movq	%rax, -8(%rbp)
	movq	-24(%rbp), %rax
	movq	(%rax), %rax
	movq	%rax, %rsi
	movl	$.LC2, %edi
	movl	$0, %eax
	call	printf
	movl	$0, -12(%rbp)
	jmp	.L25
.L26:
	movq	-8(%rbp), %rax
	movzbl	(%rax), %eax
	movzbl	%al, %eax
	movl	%eax, %edi
	call	putchar
	addl	$1, -12(%rbp)
	addq	$1, -8(%rbp)
.L25:
	movl	-12(%rbp), %eax
	movslq	%eax, %rdx
	movq	-24(%rbp), %rax
	movq	(%rax), %rax
	cmpq	%rax, %rdx
	jl	.L26
	leave
	.cfi_def_cfa 7, 8
	ret
	.cfi_endproc
.LFE7:
	.size	print, .-print
	.globl	flush
	.type	flush, @function
flush:
.LFB8:
	.cfi_startproc
	pushq	%rbp
	.cfi_def_cfa_offset 16
	.cfi_offset 6, -16
	movq	%rsp, %rbp
	.cfi_def_cfa_register 6
	movq	stdout(%rip), %rax
	movq	%rax, %rdi
	call	fflush
	popq	%rbp
	.cfi_def_cfa 7, 8
	ret
	.cfi_endproc
.LFE8:
	.size	flush, .-flush
	.globl	ord
	.type	ord, @function
ord:
.LFB9:
	.cfi_startproc
	pushq	%rbp
	.cfi_def_cfa_offset 16
	.cfi_offset 6, -16
	movq	%rsp, %rbp
	.cfi_def_cfa_register 6
	movq	%rdi, -8(%rbp)
	movq	-8(%rbp), %rax
	movq	(%rax), %rax
	testq	%rax, %rax
	jne	.L29
	movq	$-1, %rax
	jmp	.L30
.L29:
	movq	-8(%rbp), %rax
	movzbl	8(%rax), %eax
	movzbl	%al, %eax
.L30:
	popq	%rbp
	.cfi_def_cfa 7, 8
	ret
	.cfi_endproc
.LFE9:
	.size	ord, .-ord
	.section	.rodata
.LC3:
	.string	"chr(%ld) out of range\n"
	.text
	.globl	chr
	.type	chr, @function
chr:
.LFB10:
	.cfi_startproc
	pushq	%rbp
	.cfi_def_cfa_offset 16
	.cfi_offset 6, -16
	movq	%rsp, %rbp
	.cfi_def_cfa_register 6
	subq	$16, %rsp
	movq	%rdi, -8(%rbp)
	cmpq	$0, -8(%rbp)
	js	.L32
	cmpq	$255, -8(%rbp)
	jle	.L33
.L32:
	movq	-8(%rbp), %rax
	movq	%rax, %rsi
	movl	$.LC3, %edi
	movl	$0, %eax
	call	printf
	movl	$1, %edi
	call	exit
.L33:
	movq	-8(%rbp), %rax
	salq	$4, %rax
	addq	$consts, %rax
	leave
	.cfi_def_cfa 7, 8
	ret
	.cfi_endproc
.LFE10:
	.size	chr, .-chr
	.globl	size
	.type	size, @function
size:
.LFB11:
	.cfi_startproc
	pushq	%rbp
	.cfi_def_cfa_offset 16
	.cfi_offset 6, -16
	movq	%rsp, %rbp
	.cfi_def_cfa_register 6
	movq	%rdi, -8(%rbp)
	movq	-8(%rbp), %rax
	movq	(%rax), %rax
	popq	%rbp
	.cfi_def_cfa 7, 8
	ret
	.cfi_endproc
.LFE11:
	.size	size, .-size
	.section	.rodata
	.align 8
.LC4:
	.string	"substring([%ld],%ld,%ld) out of range\n"
	.text
	.globl	substring
	.type	substring, @function
substring:
.LFB12:
	.cfi_startproc
	pushq	%rbp
	.cfi_def_cfa_offset 16
	.cfi_offset 6, -16
	movq	%rsp, %rbp
	.cfi_def_cfa_register 6
	subq	$48, %rsp
	movq	%rdi, -24(%rbp)
	movq	%rsi, -32(%rbp)
	movq	%rdx, -40(%rbp)
	cmpq	$0, -32(%rbp)
	js	.L38
	movq	-40(%rbp), %rax
	movq	-32(%rbp), %rdx
	addq	%rax, %rdx
	movq	-24(%rbp), %rax
	movq	(%rax), %rax
	cmpq	%rax, %rdx
	jle	.L39
.L38:
	movq	-24(%rbp), %rax
	movq	(%rax), %rax
	movq	-40(%rbp), %rcx
	movq	-32(%rbp), %rdx
	movq	%rax, %rsi
	movl	$.LC4, %edi
	movl	$0, %eax
	call	printf
	movl	$1, %edi
	call	exit
.L39:
	cmpq	$1, -40(%rbp)
	jne	.L40
	movq	-24(%rbp), %rdx
	movq	-32(%rbp), %rax
	addq	%rdx, %rax
	movzbl	8(%rax), %eax
	movzbl	%al, %eax
	salq	$4, %rax
	addq	$consts, %rax
	jmp	.L41
.L40:
	movq	-40(%rbp), %rax
	addq	$8, %rax
	movq	%rax, %rdi
	call	malloc
	movq	%rax, -8(%rbp)
	movq	-8(%rbp), %rax
	movq	-40(%rbp), %rdx
	movq	%rdx, (%rax)
	movl	$0, -12(%rbp)
	jmp	.L42
.L43:
	movl	-12(%rbp), %eax
	movslq	%eax, %rdx
	movq	-32(%rbp), %rax
	addq	%rax, %rdx
	movq	-24(%rbp), %rax
	movzbl	8(%rax,%rdx), %ecx
	movq	-8(%rbp), %rdx
	movl	-12(%rbp), %eax
	cltq
	movb	%cl, 8(%rdx,%rax)
	addl	$1, -12(%rbp)
.L42:
	movl	-12(%rbp), %eax
	cltq
	cmpq	-40(%rbp), %rax
	jl	.L43
	movq	-8(%rbp), %rax
.L41:
	leave
	.cfi_def_cfa 7, 8
	ret
	.cfi_endproc
.LFE12:
	.size	substring, .-substring
	.globl	concat
	.type	concat, @function
concat:
.LFB13:
	.cfi_startproc
	pushq	%rbp
	.cfi_def_cfa_offset 16
	.cfi_offset 6, -16
	movq	%rsp, %rbp
	.cfi_def_cfa_register 6
	subq	$32, %rsp
	movq	%rdi, -24(%rbp)
	movq	%rsi, -32(%rbp)
	movq	-24(%rbp), %rax
	movq	(%rax), %rax
	testq	%rax, %rax
	jne	.L45
	movq	-32(%rbp), %rax
	jmp	.L46
.L45:
	movq	-32(%rbp), %rax
	movq	(%rax), %rax
	testq	%rax, %rax
	jne	.L47
	movq	-24(%rbp), %rax
	jmp	.L46
.L47:
	movq	-24(%rbp), %rax
	movq	(%rax), %rax
	movl	%eax, %edx
	movq	-32(%rbp), %rax
	movq	(%rax), %rax
	addl	%edx, %eax
	movl	%eax, -12(%rbp)
	movl	-12(%rbp), %eax
	cltq
	addq	$8, %rax
	movq	%rax, %rdi
	call	malloc
	movq	%rax, -8(%rbp)
	movl	-12(%rbp), %eax
	movslq	%eax, %rdx
	movq	-8(%rbp), %rax
	movq	%rdx, (%rax)
	movl	$0, -16(%rbp)
	jmp	.L48
.L49:
	movq	-24(%rbp), %rdx
	movl	-16(%rbp), %eax
	cltq
	movzbl	8(%rdx,%rax), %ecx
	movq	-8(%rbp), %rdx
	movl	-16(%rbp), %eax
	cltq
	movb	%cl, 8(%rdx,%rax)
	addl	$1, -16(%rbp)
.L48:
	movl	-16(%rbp), %eax
	movslq	%eax, %rdx
	movq	-24(%rbp), %rax
	movq	(%rax), %rax
	cmpq	%rax, %rdx
	jl	.L49
	movl	$0, -16(%rbp)
	jmp	.L50
.L51:
	movl	-16(%rbp), %eax
	movslq	%eax, %rdx
	movq	-24(%rbp), %rax
	movq	(%rax), %rax
	leaq	(%rdx,%rax), %rcx
	movq	-32(%rbp), %rdx
	movl	-16(%rbp), %eax
	cltq
	movzbl	8(%rdx,%rax), %edx
	movq	-8(%rbp), %rax
	movb	%dl, 8(%rax,%rcx)
	addl	$1, -16(%rbp)
.L50:
	movl	-16(%rbp), %eax
	movslq	%eax, %rdx
	movq	-32(%rbp), %rax
	movq	(%rax), %rax
	cmpq	%rax, %rdx
	jl	.L51
	movq	-8(%rbp), %rax
.L46:
	leave
	.cfi_def_cfa 7, 8
	ret
	.cfi_endproc
.LFE13:
	.size	concat, .-concat
	.globl	not
	.type	not, @function
not:
.LFB14:
	.cfi_startproc
	pushq	%rbp
	.cfi_def_cfa_offset 16
	.cfi_offset 6, -16
	movq	%rsp, %rbp
	.cfi_def_cfa_register 6
	movq	%rdi, -8(%rbp)
	cmpq	$0, -8(%rbp)
	sete	%al
	movzbl	%al, %eax
	popq	%rbp
	.cfi_def_cfa 7, 8
	ret
	.cfi_endproc
.LFE14:
	.size	not, .-not
	.globl	getstr
	.type	getstr, @function
getstr:
.LFB15:
	.cfi_startproc
	pushq	%rbp
	.cfi_def_cfa_offset 16
	.cfi_offset 6, -16
	movq	%rsp, %rbp
	.cfi_def_cfa_register 6
	subq	$16, %rsp
	movq	stdin(%rip), %rax
	movq	%rax, %rdi
	call	_IO_getc
	movl	%eax, -4(%rbp)
	cmpl	$-1, -4(%rbp)
	jne	.L55
	movl	$empty, %eax
	jmp	.L56
.L55:
	movl	-4(%rbp), %eax
	cltq
	salq	$4, %rax
	addq	$consts, %rax
.L56:
	leave
	.cfi_def_cfa 7, 8
	ret
	.cfi_endproc
.LFE15:
	.size	getstr, .-getstr
	.globl	main
	.type	main, @function
main:
.LFB16:
	.cfi_startproc
	pushq	%rbp
	.cfi_def_cfa_offset 16
	.cfi_offset 6, -16
	movq	%rsp, %rbp
	.cfi_def_cfa_register 6
	movl	$a, %edi
	call	print
	popq	%rbp
	.cfi_def_cfa 7, 8
	ret
	.cfi_endproc
.LFE16:
	.size	main, .-main
	.ident	"GCC: (Ubuntu 4.8.4-2ubuntu1~14.04) 4.8.4"
	.section	.note.GNU-stack,"",@progbits
